target datalayout = "e-m:e-p270:32:32-p271:32:32-p272:64:64-i64:64-i128:128-f80:128-n8:16:32:64-S128"
target triple = "x86_64-pc-linux-gnu"

%struct.mbedtls_cipher_context_t = type { ptr, i32, i32, ptr, ptr, [16 x i8], i64, [16 x i8], i64, ptr, ptr }
%struct.mbedtls_cmac_context_t = type { [16 x i8], [16 x i8], i64 }
%struct.mbedtls_cipher_info_t = type { ptr, i32 }

; Function Attrs: inlinehint nounwind uwtable
define internal i32 @mbedtls_cipher_info_get_type(ptr noundef %0) #3 {
  %2 = alloca i32, align 4
  %3 = alloca ptr, align 8
  store ptr %0, ptr %3, align 8, !tbaa !20
  %4 = load ptr, ptr %3, align 8, !tbaa !20
  %5 = icmp eq ptr %4, null
  br i1 %5, label %6, label %7

6:                                                ; preds = %1
  store i32 0, ptr %2, align 4
  br label %13

7:                                                ; preds = %1
  %8 = load ptr, ptr %3, align 8, !tbaa !20
  %9 = getelementptr inbounds nuw %struct.mbedtls_cipher_info_t, ptr %8, i32 0, i32 1
  %10 = load i32, ptr %9, align 8
  %11 = lshr i32 %10, 16
  %12 = and i32 %11, 255
  store i32 %12, ptr %2, align 4
  br label %13

13:                                               ; preds = %7, %6
  %14 = load i32, ptr %2, align 4
  ret i32 %14
}

; Function Attrs: nounwind uwtable
define hidden i32 @mbedtls_cipher_cmac_starts(ptr noundef %0, ptr noundef %1, i64 noundef %2) #0 {
  %4 = alloca i32, align 4
  %5 = alloca ptr, align 8
  %6 = alloca ptr, align 8
  %7 = alloca i64, align 8
  %8 = alloca i32, align 4
  %9 = alloca ptr, align 8
  %10 = alloca i32, align 4
  %11 = alloca i32, align 4
  store ptr %0, ptr %5, align 8, !tbaa !3
  store ptr %1, ptr %6, align 8, !tbaa !8
  store i64 %2, ptr %7, align 8, !tbaa !10
  call void @llvm.lifetime.start.p0(i64 4, ptr %8) #11
  call void @llvm.lifetime.start.p0(i64 8, ptr %9) #11
  call void @llvm.lifetime.start.p0(i64 4, ptr %10) #11
  %12 = load ptr, ptr %5, align 8, !tbaa !3
  %13 = icmp eq ptr %12, null
  br i1 %13, label %22, label %14

14:                                               ; preds = %3
  %15 = load ptr, ptr %5, align 8, !tbaa !3
  %16 = getelementptr inbounds nuw %struct.mbedtls_cipher_context_t, ptr %15, i32 0, i32 0
  %17 = load ptr, ptr %16, align 8, !tbaa !12
  %18 = icmp eq ptr %17, null
  br i1 %18, label %22, label %19

19:                                               ; preds = %14
  %20 = load ptr, ptr %6, align 8, !tbaa !8
  %21 = icmp eq ptr %20, null
  br i1 %21, label %22, label %23

22:                                               ; preds = %19, %14, %3
  store i32 -24832, ptr %4, align 4
  store i32 1, ptr %11, align 4
  br label %52

23:                                               ; preds = %19
  %24 = load ptr, ptr %5, align 8, !tbaa !3
  %25 = load ptr, ptr %6, align 8, !tbaa !8
  %26 = load i64, ptr %7, align 8, !tbaa !10
  %27 = trunc i64 %26 to i32
  %28 = call i32 @mbedtls_cipher_setkey(ptr noundef %24, ptr noundef %25, i32 noundef %27, i32 noundef 1)
  store i32 %28, ptr %10, align 4, !tbaa !17
  %29 = icmp ne i32 %28, 0
  br i1 %29, label %30, label %32

30:                                               ; preds = %23
  %31 = load i32, ptr %10, align 4, !tbaa !17
  store i32 %31, ptr %4, align 4
  store i32 1, ptr %11, align 4
  br label %52

32:                                               ; preds = %23
  %33 = load ptr, ptr %5, align 8, !tbaa !3
  %34 = getelementptr inbounds nuw %struct.mbedtls_cipher_context_t, ptr %33, i32 0, i32 0
  %35 = load ptr, ptr %34, align 8, !tbaa !12
  %36 = call i32 @mbedtls_cipher_info_get_type(ptr noundef %35)
  store i32 %36, ptr %8, align 4, !tbaa !17
  %37 = load i32, ptr %8, align 4, !tbaa !17
  switch i32 %37, label %39 [
    i32 2, label %38
    i32 3, label %38
    i32 4, label %38
    i32 36, label %38
  ]

38:                                               ; preds = %32, %32, %32, %32
  br label %40

39:                                               ; preds = %32
  store i32 -24832, ptr %4, align 4
  store i32 1, ptr %11, align 4
  br label %52

40:                                               ; preds = %38
  %41 = call noalias ptr @calloc(i64 noundef 1, i64 noundef 40) #12
  store ptr %41, ptr %9, align 8, !tbaa !18
  %42 = load ptr, ptr %9, align 8, !tbaa !18
  %43 = icmp eq ptr %42, null
  br i1 %43, label %44, label %45

44:                                               ; preds = %40
  store i32 -24960, ptr %4, align 4
  store i32 1, ptr %11, align 4
  br label %52

45:                                               ; preds = %40
  %46 = load ptr, ptr %9, align 8, !tbaa !18
  %47 = load ptr, ptr %5, align 8, !tbaa !3
  %48 = getelementptr inbounds nuw %struct.mbedtls_cipher_context_t, ptr %47, i32 0, i32 10
  store ptr %46, ptr %48, align 8, !tbaa !19
  %49 = load ptr, ptr %9, align 8, !tbaa !18
  %50 = getelementptr inbounds nuw %struct.mbedtls_cmac_context_t, ptr %49, i32 0, i32 0
  %51 = getelementptr inbounds [16 x i8], ptr %50, i64 0, i64 0
  call void @mbedtls_platform_zeroize(ptr noundef %51, i64 noundef 16)
  store i32 0, ptr %4, align 4
  store i32 1, ptr %11, align 4
  br label %52

52:                                               ; preds = %45, %44, %39, %30, %22
  call void @llvm.lifetime.end.p0(i64 4, ptr %10) #11
  call void @llvm.lifetime.end.p0(i64 8, ptr %9) #11
  call void @llvm.lifetime.end.p0(i64 4, ptr %8) #11
  %53 = load i32, ptr %4, align 4
  ret i32 %53
}

; Function Attrs: nounwind uwtable
define hidden i32 @mbedtls_cipher_cmac(ptr noundef %0, ptr noundef %1, i64 noundef %2, ptr noundef %3, i64 noundef %4, ptr noundef %5) #0 {
  %7 = alloca i32, align 4
  %8 = alloca ptr, align 8
  %9 = alloca ptr, align 8
  %10 = alloca i64, align 8
  %11 = alloca ptr, align 8
  %12 = alloca i64, align 8
  %13 = alloca ptr, align 8
  %14 = alloca %struct.mbedtls_cipher_context_t, align 8
  %15 = alloca i32, align 4
  %16 = alloca i32, align 4
  store ptr %0, ptr %8, align 8, !tbaa !20
  store ptr %1, ptr %9, align 8, !tbaa !8
  store i64 %2, ptr %10, align 8, !tbaa !10
  store ptr %3, ptr %11, align 8, !tbaa !8
  store i64 %4, ptr %12, align 8, !tbaa !10
  store ptr %5, ptr %13, align 8, !tbaa !8
  call void @llvm.lifetime.start.p0(i64 96, ptr %14) #11
  call void @llvm.lifetime.start.p0(i64 4, ptr %15) #11
  store i32 -110, ptr %15, align 4, !tbaa !17
  %17 = load ptr, ptr %8, align 8, !tbaa !20
  %18 = icmp eq ptr %17, null
  br i1 %18, label %28, label %19

19:                                               ; preds = %6
  %20 = load ptr, ptr %9, align 8, !tbaa !8
  %21 = icmp eq ptr %20, null
  br i1 %21, label %28, label %22

22:                                               ; preds = %19
  %23 = load ptr, ptr %11, align 8, !tbaa !8
  %24 = icmp eq ptr %23, null
  br i1 %24, label %28, label %25

25:                                               ; preds = %22
  %26 = load ptr, ptr %13, align 8, !tbaa !8
  %27 = icmp eq ptr %26, null
  br i1 %27, label %28, label %29

28:                                               ; preds = %25, %22, %19, %6
  store i32 -24832, ptr %7, align 4
  store i32 1, ptr %16, align 4
  br label %53

29:                                               ; preds = %25
  call void @mbedtls_cipher_init(ptr noundef %14)
  %30 = load ptr, ptr %8, align 8, !tbaa !20
  %31 = call i32 @mbedtls_cipher_setup(ptr noundef %14, ptr noundef %30)
  store i32 %31, ptr %15, align 4, !tbaa !17
  %32 = icmp ne i32 %31, 0
  br i1 %32, label %33, label %34

33:                                               ; preds = %29
  br label %51

34:                                               ; preds = %29
  %35 = load ptr, ptr %9, align 8, !tbaa !8
  %36 = load i64, ptr %10, align 8, !tbaa !10
  %37 = call i32 @mbedtls_cipher_cmac_starts(ptr noundef %14, ptr noundef %35, i64 noundef %36)
  store i32 %37, ptr %15, align 4, !tbaa !17
  %38 = load i32, ptr %15, align 4, !tbaa !17
  %39 = icmp ne i32 %38, 0
  br i1 %39, label %40, label %41

40:                                               ; preds = %34
  br label %51

41:                                               ; preds = %34
  %42 = load ptr, ptr %11, align 8, !tbaa !8
  %43 = load i64, ptr %12, align 8, !tbaa !10
  %44 = call i32 @mbedtls_cipher_cmac_update(ptr noundef %14, ptr noundef %42, i64 noundef %43)
  store i32 %44, ptr %15, align 4, !tbaa !17
  %45 = load i32, ptr %15, align 4, !tbaa !17
  %46 = icmp ne i32 %45, 0
  br i1 %46, label %47, label %48

47:                                               ; preds = %41
  br label %51

48:                                               ; preds = %41
  %49 = load ptr, ptr %13, align 8, !tbaa !8
  %50 = call i32 @mbedtls_cipher_cmac_finish(ptr noundef %14, ptr noundef %49)
  store i32 %50, ptr %15, align 4, !tbaa !17
  br label %51

51:                                               ; preds = %48, %47, %40, %33
  call void @mbedtls_cipher_free(ptr noundef %14)
  %52 = load i32, ptr %15, align 4, !tbaa !17
  store i32 %52, ptr %7, align 4
  store i32 1, ptr %16, align 4
  br label %53

53:                                               ; preds = %51, %28
  call void @llvm.lifetime.end.p0(i64 4, ptr %15) #11
  call void @llvm.lifetime.end.p0(i64 96, ptr %14) #11
  %54 = load i32, ptr %7, align 4
  ret i32 %54
}