; Function Attrs: nounwind uwtable
define hidden i32 @mbedtls_cipher_cmac(ptr noundef %0, ptr noundef %1, i64 noundef %2, ptr noundef %3, i64 noundef %4, ptr noundef %5) local_unnamed_addr #0 {
  %7 = alloca %struct.mbedtls_cipher_context_t, align 8
  call void @llvm.lifetime.start.p0(i64 96, ptr nonnull %7) #13
  %8 = icmp eq ptr %0, null
  %9 = icmp eq ptr %1, null
  %or.cond = or i1 %8, %9
  %10 = icmp eq ptr %3, null
  %or.cond3 = or i1 %or.cond, %10
  %11 = icmp eq ptr %5, null
  %or.cond5 = or i1 %or.cond3, %11
  br i1 %or.cond5, label %34, label %12

12:                                               ; preds = %6
  call void @mbedtls_cipher_init(ptr noundef nonnull %7) #13
  %13 = call i32 @mbedtls_cipher_setup(ptr noundef nonnull %7, ptr noundef nonnull %0) #13
  %.not = icmp eq i32 %13, 0
  br i1 %.not, label %14, label %mbedtls_cipher_cmac_starts.exit.thread

14:                                               ; preds = %12
  %15 = load ptr, ptr %7, align 8, !tbaa !3
  %16 = icmp eq ptr %15, null
  br i1 %16, label %mbedtls_cipher_cmac_starts.exit.thread, label %17

17:                                               ; preds = %14
  %18 = trunc i64 %2 to i32
  %19 = call i32 @mbedtls_cipher_setkey(ptr noundef nonnull %7, ptr noundef nonnull %1, i32 noundef %18, i32 noundef 1) #13
  %.not.i = icmp eq i32 %19, 0
  br i1 %.not.i, label %20, label %mbedtls_cipher_cmac_starts.exit.thread

20:                                               ; preds = %17
  %21 = load ptr, ptr %7, align 8, !tbaa !3
  %22 = icmp eq ptr %21, null
  br i1 %22, label %mbedtls_cipher_cmac_starts.exit.thread, label %mbedtls_cipher_info_get_type.exit.i

mbedtls_cipher_info_get_type.exit.i:              ; preds = %20
  %23 = getelementptr inbounds nuw i8, ptr %21, i64 8
  %24 = load i32, ptr %23, align 8
  %25 = lshr i32 %24, 16
  %trunc.i = trunc i32 %25 to i8
  switch i8 %trunc.i, label %mbedtls_cipher_cmac_starts.exit.thread [
    i8 2, label %26
    i8 3, label %26
    i8 4, label %26
    i8 36, label %26
  ]

26:                                               ; preds = %mbedtls_cipher_info_get_type.exit.i, %mbedtls_cipher_info_get_type.exit.i, %mbedtls_cipher_info_get_type.exit.i, %mbedtls_cipher_info_get_type.exit.i
  %27 = call noalias dereferenceable_or_null(40) ptr @calloc(i64 noundef 1, i64 noundef 40) #14
  %28 = icmp eq ptr %27, null
  br i1 %28, label %mbedtls_cipher_cmac_starts.exit.thread, label %29

29:                                               ; preds = %26
  %30 = getelementptr inbounds nuw i8, ptr %7, i64 88
  store ptr %27, ptr %30, align 8, !tbaa !12
  call void @mbedtls_platform_zeroize(ptr noundef nonnull %27, i64 noundef 16) #13
  %31 = call i32 @mbedtls_cipher_cmac_update(ptr noundef nonnull %7, ptr noundef nonnull %3, i64 noundef %4)
  %.not27 = icmp eq i32 %31, 0
  br i1 %.not27, label %32, label %mbedtls_cipher_cmac_starts.exit.thread

32:                                               ; preds = %29
  %33 = call i32 @mbedtls_cipher_cmac_finish(ptr noundef nonnull %7, ptr noundef nonnull %5)
  br label %mbedtls_cipher_cmac_starts.exit.thread

mbedtls_cipher_cmac_starts.exit.thread:           ; preds = %20, %26, %mbedtls_cipher_info_get_type.exit.i, %17, %14, %29, %12, %32
  %.0 = phi i32 [ %13, %12 ], [ %31, %29 ], [ %33, %32 ], [ -24832, %20 ], [ -24960, %26 ], [ -24832, %mbedtls_cipher_info_get_type.exit.i ], [ %19, %17 ], [ -24832, %14 ]
  call void @mbedtls_cipher_free(ptr noundef nonnull %7) #13
  br label %34

34:                                               ; preds = %6, %mbedtls_cipher_cmac_starts.exit.thread
  %.018 = phi i32 [ %.0, %mbedtls_cipher_cmac_starts.exit.thread ], [ -24832, %6 ]
  call void @llvm.lifetime.end.p0(i64 96, ptr nonnull %7) #13
  ret i32 %.018
}